Certificate:
    Data:
        Version: 3 (0x2)
        Serial Number: 2 (0x2)
        Signature Algorithm: sha256WithRSAEncryption
        Issuer: C=PW, ST=Warsaw, L=Warsaw, O=PW, OU=PW, CN=CA/emailAddress=admin@admin.com
        Validity
            Not Before: Nov 25 21:02:53 2020 GMT
            Not After : Nov 25 21:02:53 2021 GMT
        Subject: C=PW, ST=Warsaw, O=PW, OU=PW, CN=CA/emailAddress=admin@admin.com
        Subject Public Key Info:
            Public Key Algorithm: rsaEncryption
                RSA Public-Key: (2048 bit)
                Modulus:
                    00:e8:1e:cc:69:17:0e:9a:aa:60:c3:0f:72:87:13:
                    be:9d:c8:79:61:d5:d4:42:06:08:9e:03:08:9c:6a:
                    b0:36:62:2e:b3:8d:4c:2b:5a:1e:0a:33:5e:84:77:
                    57:61:8e:0f:df:eb:65:7b:b2:13:20:d8:30:a5:62:
                    23:81:53:7d:2c:fc:83:59:63:0c:51:2b:53:5e:09:
                    c2:59:0d:cb:d1:9f:59:f5:ff:74:24:8b:fb:0d:1d:
                    23:4c:16:ef:75:b3:a5:3e:cd:40:b5:47:39:52:02:
                    d9:e7:60:04:0f:96:26:fe:cb:79:33:4b:75:0e:bb:
                    60:e7:f8:27:ec:e5:fa:be:9d:41:f4:0e:f6:bc:b5:
                    1a:e9:b4:d8:50:58:1f:cb:90:63:a3:a9:00:93:f7:
                    13:ab:59:1b:7f:b3:75:85:9f:5e:0d:32:31:da:93:
                    86:3d:f0:05:5b:51:c6:b4:bc:dc:d1:4d:d0:7d:38:
                    a7:95:3d:71:60:2a:1f:e0:b1:c2:c4:50:34:3e:dc:
                    bb:6e:fc:57:b8:62:75:55:ae:3e:8d:3e:7a:60:fa:
                    b9:69:ec:f1:1f:b9:da:9c:36:a6:1c:30:d0:d9:e5:
                    22:7f:21:d2:9e:4b:81:0a:a0:55:5c:a2:51:cf:ee:
                    af:6f:82:42:d5:09:3a:94:9b:84:a7:84:6e:a3:c6:
                    38:05
                Exponent: 65537 (0x10001)
        X509v3 extensions:
            X509v3 Basic Constraints: 
                CA:FALSE
            Netscape Comment: 
                OpenSSL Generated Certificate
            X509v3 Subject Key Identifier: 
                4C:3C:7C:A6:5C:C3:B0:41:5B:A5:B5:26:15:88:02:4D:10:EC:78:0F
            X509v3 Authority Key Identifier: 
                keyid:31:F7:5E:EC:54:5D:DE:00:B1:4C:B2:73:C7:8E:7D:B7:E5:CF:BF:A9

    Signature Algorithm: sha256WithRSAEncryption
         aa:f1:d2:cb:a1:5a:ec:9e:1f:8f:9e:0a:e7:6f:4d:43:e6:c7:
         8c:da:05:dc:0b:da:06:bf:4a:c3:79:e2:09:16:3c:b5:5e:ac:
         9d:76:81:af:44:88:3d:a5:63:63:45:3b:8e:80:0e:98:3c:7e:
         be:f5:59:ac:56:ec:2d:d2:f7:3d:90:41:cf:12:d9:91:33:87:
         8f:e8:81:8d:dd:4a:fb:72:bf:35:32:ea:7d:a4:e8:32:0e:75:
         94:91:19:ca:45:e5:91:85:f5:7e:a9:9d:c8:ef:73:8f:0b:63:
         d4:ed:2f:d1:ff:d5:e7:bb:dd:8a:e7:32:45:23:fb:aa:3a:6b:
         a5:4f:8a:c9:f3:71:29:e8:64:c9:41:94:56:74:1e:62:0f:01:
         c8:bc:50:33:7b:f0:72:87:af:65:21:51:d5:64:44:7c:de:1d:
         a0:8f:f8:50:44:0d:dd:a4:cc:8f:a0:e1:fc:a0:ca:93:4a:78:
         57:ff:85:ba:e8:67:ca:27:8f:39:51:d4:02:9a:bf:d2:44:45:
         51:35:8e:f5:f8:dd:19:3f:98:58:77:24:2f:da:3e:9d:bd:84:
         5a:f5:d2:47:08:25:28:46:3d:49:cc:f8:c7:ca:57:af:c1:a2:
         af:9f:d2:47:01:27:df:b7:d8:d7:df:4c:18:3b:ed:0f:e7:24:
         a4:51:ab:b0
-----BEGIN CERTIFICATE-----
MIID0TCCArmgAwIBAgIBAjANBgkqhkiG9w0BAQsFADB2MQswCQYDVQQGEwJQVzEP
MA0GA1UECAwGV2Fyc2F3MQ8wDQYDVQQHDAZXYXJzYXcxCzAJBgNVBAoMAlBXMQsw
CQYDVQQLDAJQVzELMAkGA1UEAwwCQ0ExHjAcBgkqhkiG9w0BCQEWD2FkbWluQGFk
bWluLmNvbTAeFw0yMDExMjUyMTAyNTNaFw0yMTExMjUyMTAyNTNaMGUxCzAJBgNV
BAYTAlBXMQ8wDQYDVQQIDAZXYXJzYXcxCzAJBgNVBAoMAlBXMQswCQYDVQQLDAJQ
VzELMAkGA1UEAwwCQ0ExHjAcBgkqhkiG9w0BCQEWD2FkbWluQGFkbWluLmNvbTCC
ASIwDQYJKoZIhvcNAQEBBQADggEPADCCAQoCggEBAOgezGkXDpqqYMMPcocTvp3I
eWHV1EIGCJ4DCJxqsDZiLrONTCtaHgozXoR3V2GOD9/rZXuyEyDYMKViI4FTfSz8
g1ljDFErU14JwlkNy9GfWfX/dCSL+w0dI0wW73WzpT7NQLVHOVIC2edgBA+WJv7L
eTNLdQ67YOf4J+zl+r6dQfQO9ry1Gum02FBYH8uQY6OpAJP3E6tZG3+zdYWfXg0y
MdqThj3wBVtRxrS83NFN0H04p5U9cWAqH+CxwsRQND7cu278V7hidVWuPo0+emD6
uWns8R+52pw2phww0NnlIn8h0p5LgQqgVVyiUc/ur2+CQtUJOpSbhKeEbqPGOAUC
AwEAAaN7MHkwCQYDVR0TBAIwADAsBglghkgBhvhCAQ0EHxYdT3BlblNTTCBHZW5l
cmF0ZWQgQ2VydGlmaWNhdGUwHQYDVR0OBBYEFEw8fKZcw7BBW6W1JhWIAk0Q7HgP
MB8GA1UdIwQYMBaAFDH3XuxUXd4AsUyyc8eOfbflz7+pMA0GCSqGSIb3DQEBCwUA
A4IBAQCq8dLLoVrsnh+Pngrnb01D5seM2gXcC9oGv0rDeeIJFjy1XqyddoGvRIg9
pWNjRTuOgA6YPH6+9VmsVuwt0vc9kEHPEtmRM4eP6IGN3Ur7cr81Mup9pOgyDnWU
kRnKReWRhfV+qZ3I73OPC2PU7S/R/9Xnu92K5zJFI/uqOmulT4rJ83Ep6GTJQZRW
dB5iDwHIvFAze/Byh69lIVHVZER83h2gj/hQRA3dpMyPoOH8oMqTSnhX/4W66GfK
J485UdQCmr/SREVRNY71+N0ZP5hYdyQv2j6dvYRa9dJHCCUoRj1JzPjHylevwaKv
n9JHASfft9jX30wYO+0P5ySkUauw
-----END CERTIFICATE-----
